target datalayout = "e-m:e-p270:32:32-p271:32:32-p272:64:64-i64:64-i128:128-f80:128-n8:16:32:64-S128"
target triple = "x86_64-pc-linux-gnu"

%struct.hm_header_st = type { i8, i32, i16, i32, i32, i32, i16 }
%struct.ssl_st = type { i32, i16, i16, ptr, ptr, ptr, ptr, ptr, i32, i32, ptr, ptr, i32, i32, ptr, ptr, ptr, ptr, ptr, ptr, ptr, ptr, i32, i32, [32 x i8], ptr, ptr, ptr, ptr, ptr, ptr, ptr, i64, %struct.crypto_ex_data_st, ptr, i32, i32, i32, i32, i16, ptr, i32, i64, ptr, ptr, ptr, ptr, ptr, ptr, i32, i32, ptr, ptr, i8, i8, i32 }
%struct.crypto_ex_data_st = type { ptr }
%struct.dtls1_state_st = type { i32, [256 x i8], i64, i16, i16, %struct.dtls1_bitmap_st, i16, i16, i16, [8 x i8], ptr, ptr, i32, %struct.hm_header_st, i32, %struct.timeval, i16 }
%struct.dtls1_bitmap_st = type { i64, i64 }
%struct.timeval = type { i64, i64 }

@dtls1_write_change_cipher_spec.kChangeCipherSpec = internal constant [1 x i8] c"\01", align 1

; Function Attrs: nounwind uwtable
define internal i64 @dtls1_max_record_size(ptr noundef %0) #0 {
  %2 = alloca i64, align 8
  %3 = alloca ptr, align 8
  %4 = alloca i64, align 8
  %5 = alloca i64, align 8
  %6 = alloca i32, align 4
  %7 = alloca i64, align 8
  store ptr %0, ptr %3, align 8, !tbaa !18
  call void @llvm.lifetime.start.p0(i64 8, ptr %4) #8
  %8 = load ptr, ptr %3, align 8, !tbaa !18
  %9 = getelementptr inbounds nuw %struct.ssl_st, ptr %8, i32 0, i32 15
  %10 = load ptr, ptr %9, align 8, !tbaa !21
  %11 = getelementptr inbounds nuw %struct.dtls1_state_st, ptr %10, i32 0, i32 12
  %12 = load i32, ptr %11, align 8, !tbaa !44
  %13 = zext i32 %12 to i64
  store i64 %13, ptr %4, align 8, !tbaa !53
  call void @llvm.lifetime.start.p0(i64 8, ptr %5) #8
  %14 = load ptr, ptr %3, align 8, !tbaa !18
  %15 = call i64 @ssl_max_seal_overhead(ptr noundef %14)
  store i64 %15, ptr %5, align 8, !tbaa !53
  %16 = load i64, ptr %4, align 8, !tbaa !53
  %17 = load i64, ptr %5, align 8, !tbaa !53
  %18 = icmp ule i64 %16, %17
  br i1 %18, label %19, label %20

19:                                               ; preds = %1
  store i64 0, ptr %2, align 8
  store i32 1, ptr %6, align 4
  br label %37

20:                                               ; preds = %1
  %21 = load i64, ptr %5, align 8, !tbaa !53
  %22 = load i64, ptr %4, align 8, !tbaa !53
  %23 = sub i64 %22, %21
  store i64 %23, ptr %4, align 8, !tbaa !53
  call void @llvm.lifetime.start.p0(i64 8, ptr %7) #8
  %24 = load ptr, ptr %3, align 8, !tbaa !18
  %25 = call ptr @SSL_get_wbio(ptr noundef %24)
  %26 = call i64 @BIO_wpending(ptr noundef %25)
  store i64 %26, ptr %7, align 8, !tbaa !53
  %27 = load i64, ptr %4, align 8, !tbaa !53
  %28 = load i64, ptr %7, align 8, !tbaa !53
  %29 = icmp ule i64 %27, %28
  br i1 %29, label %30, label %31

30:                                               ; preds = %20
  store i64 0, ptr %2, align 8
  store i32 1, ptr %6, align 4
  br label %36

31:                                               ; preds = %20
  %32 = load i64, ptr %7, align 8, !tbaa !53
  %33 = load i64, ptr %4, align 8, !tbaa !53
  %34 = sub i64 %33, %32
  store i64 %34, ptr %4, align 8, !tbaa !53
  %35 = load i64, ptr %4, align 8, !tbaa !53
  store i64 %35, ptr %2, align 8
  store i32 1, ptr %6, align 4
  br label %36

36:                                               ; preds = %31, %30
  call void @llvm.lifetime.end.p0(i64 8, ptr %7) #8
  br label %37

37:                                               ; preds = %36, %19
  call void @llvm.lifetime.end.p0(i64 8, ptr %5) #8
  call void @llvm.lifetime.end.p0(i64 8, ptr %4) #8
  %38 = load i64, ptr %2, align 8
  ret i64 %38
}

; Function Attrs: nounwind uwtable
define internal i32 @dtls1_write_change_cipher_spec(ptr noundef %0, i32 noundef %1) #0 {
  %3 = alloca i32, align 4
  %4 = alloca ptr, align 8
  %5 = alloca i32, align 4
  %6 = alloca i32, align 4
  %7 = alloca i32, align 4
  %8 = alloca i32, align 4
  store ptr %0, ptr %4, align 8, !tbaa !18
  store i32 %1, ptr %5, align 4, !tbaa !20
  %9 = load ptr, ptr %4, align 8, !tbaa !18
  call void @dtls1_update_mtu(ptr noundef %9)
  %10 = load ptr, ptr %4, align 8, !tbaa !18
  %11 = call i64 @dtls1_max_record_size(ptr noundef %10)
  %12 = icmp eq i64 %11, 0
  br i1 %12, label %13, label %27

13:                                               ; preds = %2
  call void @llvm.lifetime.start.p0(i64 4, ptr %6) #8
  %14 = load ptr, ptr %4, align 8, !tbaa !18
  %15 = call ptr @SSL_get_wbio(ptr noundef %14)
  %16 = call i32 @BIO_flush(ptr noundef %15)
  store i32 %16, ptr %6, align 4, !tbaa !20
  %17 = load i32, ptr %6, align 4, !tbaa !20
  %18 = icmp sle i32 %17, 0
  br i1 %18, label %19, label %23

19:                                               ; preds = %13
  %20 = load ptr, ptr %4, align 8, !tbaa !18
  %21 = getelementptr inbounds nuw %struct.ssl_st, ptr %20, i32 0, i32 22
  store i32 2, ptr %21, align 8, !tbaa !52
  %22 = load i32, ptr %6, align 4, !tbaa !20
  store i32 %22, ptr %3, align 4
  store i32 1, ptr %7, align 4
  br label %24

23:                                               ; preds = %13
  store i32 0, ptr %7, align 4
  br label %24

24:                                               ; preds = %23, %19
  call void @llvm.lifetime.end.p0(i64 4, ptr %6) #8
  %25 = load i32, ptr %7, align 4
  switch i32 %25, label %55 [
    i32 0, label %26
    i32 1, label %53
  ]

26:                                               ; preds = %24
  br label %27

27:                                               ; preds = %26, %2
  call void @llvm.lifetime.start.p0(i64 4, ptr %8) #8
  %28 = load ptr, ptr %4, align 8, !tbaa !18
  %29 = load i32, ptr %5, align 4, !tbaa !20
  %30 = call i32 @dtls1_write_bytes(ptr noundef %28, i32 noundef 20, ptr noundef @dtls1_write_change_cipher_spec.kChangeCipherSpec, i32 noundef 1, i32 noundef %29)
  store i32 %30, ptr %8, align 4, !tbaa !20
  %31 = load i32, ptr %8, align 4, !tbaa !20
  %32 = icmp sle i32 %31, 0
  br i1 %32, label %33, label %35

33:                                               ; preds = %27
  %34 = load i32, ptr %8, align 4, !tbaa !20
  store i32 %34, ptr %3, align 4
  store i32 1, ptr %7, align 4
  br label %52

35:                                               ; preds = %27
  %36 = load ptr, ptr %4, align 8, !tbaa !18
  %37 = getelementptr inbounds nuw %struct.ssl_st, ptr %36, i32 0, i32 16
  %38 = load ptr, ptr %37, align 8, !tbaa !62
  %39 = icmp ne ptr %38, null
  br i1 %39, label %40, label %51

40:                                               ; preds = %35
  %41 = load ptr, ptr %4, align 8, !tbaa !18
  %42 = getelementptr inbounds nuw %struct.ssl_st, ptr %41, i32 0, i32 16
  %43 = load ptr, ptr %42, align 8, !tbaa !62
  %44 = load ptr, ptr %4, align 8, !tbaa !18
  %45 = getelementptr inbounds nuw %struct.ssl_st, ptr %44, i32 0, i32 0
  %46 = load i32, ptr %45, align 8, !tbaa !63
  %47 = load ptr, ptr %4, align 8, !tbaa !18
  %48 = load ptr, ptr %4, align 8, !tbaa !18
  %49 = getelementptr inbounds nuw %struct.ssl_st, ptr %48, i32 0, i32 17
  %50 = load ptr, ptr %49, align 8, !tbaa !64
  call void %43(i32 noundef 1, i32 noundef %46, i32 noundef 20, ptr noundef @dtls1_write_change_cipher_spec.kChangeCipherSpec, i64 noundef 1, ptr noundef %47, ptr noundef %50)
  br label %51

51:                                               ; preds = %40, %35
  store i32 1, ptr %3, align 4
  store i32 1, ptr %7, align 4
  br label %52

52:                                               ; preds = %51, %33
  call void @llvm.lifetime.end.p0(i64 4, ptr %8) #8
  br label %53

53:                                               ; preds = %52, %24
  %54 = load i32, ptr %3, align 4
  ret i32 %54

55:                                               ; preds = %24
  unreachable
}