; Function Attrs: nounwind uwtable
define internal fastcc range(i32 -2147483648, 2) i32 @dtls1_write_change_cipher_spec(ptr noundef %0, i32 noundef range(i32 0, 2) %1) unnamed_addr #2 {
  tail call fastcc void @dtls1_update_mtu(ptr noundef %0)
  %3 = getelementptr inbounds nuw i8, ptr %0, i64 88
  %4 = load ptr, ptr %3, align 8, !tbaa !16
  %5 = getelementptr inbounds nuw i8, ptr %4, i64 328
  %6 = load i32, ptr %5, align 8, !tbaa !39
  %7 = zext i32 %6 to i64
  %8 = tail call i64 @ssl_max_seal_overhead(ptr noundef %0) #13
  %.not.i = icmp ult i64 %8, %7
  br i1 %.not.i, label %dtls1_max_record_size.exit, label %dtls1_max_record_size.exit.thread

dtls1_max_record_size.exit:                       ; preds = %2
  %9 = sub nuw nsw i64 %7, %8
  %10 = tail call ptr @SSL_get_wbio(ptr noundef nonnull %0) #13
  %11 = tail call i64 @BIO_wpending(ptr noundef %10) #13
  %.not20 = icmp ugt i64 %9, %11
  br i1 %.not20, label %.thread, label %dtls1_max_record_size.exit.thread

dtls1_max_record_size.exit.thread:                ; preds = %2, %dtls1_max_record_size.exit
  %12 = tail call ptr @SSL_get_wbio(ptr noundef nonnull %0) #13
  %13 = tail call i32 @BIO_flush(ptr noundef %12) #13
  %14 = icmp slt i32 %13, 1
  br i1 %14, label %15, label %.thread

15:                                               ; preds = %dtls1_max_record_size.exit.thread
  %16 = getelementptr inbounds nuw i8, ptr %0, i64 144
  store i32 2, ptr %16, align 8, !tbaa !46
  br label %26

.thread:                                          ; preds = %dtls1_max_record_size.exit.thread, %dtls1_max_record_size.exit
  %17 = tail call i32 @dtls1_write_bytes(ptr noundef nonnull %0, i32 noundef 20, ptr noundef nonnull @dtls1_write_change_cipher_spec.kChangeCipherSpec, i32 noundef 1, i32 noundef %1) #13
  %18 = icmp slt i32 %17, 1
  br i1 %18, label %26, label %19

19:                                               ; preds = %.thread
  %20 = getelementptr inbounds nuw i8, ptr %0, i64 96
  %21 = load ptr, ptr %20, align 8, !tbaa !56
  %.not = icmp eq ptr %21, null
  br i1 %.not, label %26, label %22

22:                                               ; preds = %19
  %23 = load i32, ptr %0, align 8, !tbaa !57
  %24 = getelementptr inbounds nuw i8, ptr %0, i64 104
  %25 = load ptr, ptr %24, align 8, !tbaa !58
  tail call void %21(i32 noundef 1, i32 noundef %23, i32 noundef 20, ptr noundef nonnull @dtls1_write_change_cipher_spec.kChangeCipherSpec, i64 noundef 1, ptr noundef nonnull %0, ptr noundef %25) #13
  br label %26

26:                                               ; preds = %15, %.thread, %22, %19
  %.1 = phi i32 [ %13, %15 ], [ %17, %.thread ], [ 1, %22 ], [ 1, %19 ]
  ret i32 %.1
}